target datalayout = "e-m:e-p270:32:32-p271:32:32-p272:64:64-i64:64-i128:128-f80:128-n8:16:32:64-S128"
target triple = "x86_64-pc-linux-gnu"

; Function Attrs: nounwind uwtable
define internal i32 @H5FD_multi_query(ptr noundef %0, ptr noundef %1) #0 {
  %3 = alloca ptr, align 8
  %4 = alloca ptr, align 8
  store ptr %0, ptr %3, align 8, !tbaa !3
  store ptr %1, ptr %4, align 8, !tbaa !31
  %5 = load ptr, ptr %4, align 8, !tbaa !31
  %6 = icmp ne ptr %5, null
  br i1 %6, label %7, label %21

7:                                                ; preds = %2
  %8 = load ptr, ptr %4, align 8, !tbaa !31
  store i64 0, ptr %8, align 8, !tbaa !12
  %9 = load ptr, ptr %4, align 8, !tbaa !31
  %10 = load i64, ptr %9, align 8, !tbaa !12
  %11 = or i64 %10, 8
  store i64 %11, ptr %9, align 8, !tbaa !12
  %12 = load ptr, ptr %4, align 8, !tbaa !31
  %13 = load i64, ptr %12, align 8, !tbaa !12
  %14 = or i64 %13, 16
  store i64 %14, ptr %12, align 8, !tbaa !12
  %15 = load ptr, ptr %4, align 8, !tbaa !31
  %16 = load i64, ptr %15, align 8, !tbaa !12
  %17 = or i64 %16, 8192
  store i64 %17, ptr %15, align 8, !tbaa !12
  %18 = load ptr, ptr %4, align 8, !tbaa !31
  %19 = load i64, ptr %18, align 8, !tbaa !12
  %20 = or i64 %19, 16384
  store i64 %20, ptr %18, align 8, !tbaa !12
  br label %21

21:                                               ; preds = %7, %2
  ret i32 0
}