; Function Attrs: mustprogress nofree norecurse nosync nounwind willreturn memory(argmem: write) uwtable
define internal noundef i32 @H5FD_multi_query(ptr readnone captures(none) %0, ptr noundef writeonly captures(address_is_null) %1) #1 {
  %.not = icmp eq ptr %1, null
  br i1 %.not, label %4, label %3

3:                                                ; preds = %2
  store i64 24600, ptr %1, align 8, !tbaa !23
  br label %4

4:                                                ; preds = %3, %2
  ret i32 0
}